; ModuleID = 'bench/z3/original/dl_register_engine.ll'
source_filename = "bench/z3/original/dl_register_engine.ll"
target datalayout = "e-m:e-p270:32:32-p271:32:32-p272:64:64-i64:64-i128:128-f80:128-n8:16:32:64-S128"
target triple = "x86_64-pc-linux-gnu"

%"class.std::ios_base::Init" = type { i8 }

$_ZN7datalog20register_engine_baseD2Ev = comdat any

$_ZN7datalog15register_engineD0Ev = comdat any

$_ZN7datalog15register_engine11set_contextEPNS_7contextE = comdat any

$_ZTIN7datalog20register_engine_baseE = comdat any

$_ZTSN7datalog20register_engine_baseE = comdat any

@_ZStL8__ioinit = internal global %"class.std::ios_base::Init" zeroinitializer, align 1
@__dso_handle = external hidden global i8
@_ZTVN7datalog15register_engineE = hidden unnamed_addr constant { [6 x ptr] } { [6 x ptr] [ptr null, ptr @_ZTIN7datalog15register_engineE, ptr @_ZN7datalog20register_engine_baseD2Ev, ptr @_ZN7datalog15register_engineD0Ev, ptr @_ZN7datalog15register_engine9mk_engineENS_9DL_ENGINEE, ptr @_ZN7datalog15register_engine11set_contextEPNS_7contextE] }, align 8
@.str = private unnamed_addr constant [117 x i8] c"generated/home/dtcxzyw/WorkSpace/Projects/compilers/llvm-opt-benchmark/bench/z3/z3/src/muz/fp/dl_register_engine.cpp\00", align 1
@.str.1 = private unnamed_addr constant [29 x i8] c"UNEXPECTED CODE WAS REACHED.\00", align 1
@_ZTIN7datalog15register_engineE = hidden constant { ptr, ptr, ptr } { ptr getelementptr inbounds (ptr, ptr @_ZTVN10__cxxabiv120__si_class_type_infoE, i64 2), ptr @_ZTSN7datalog15register_engineE, ptr @_ZTIN7datalog20register_engine_baseE }, align 8
@_ZTVN10__cxxabiv120__si_class_type_infoE = external global [0 x ptr]
@_ZTSN7datalog15register_engineE = hidden constant [28 x i8] c"N7datalog15register_engineE\00", align 1
@_ZTIN7datalog20register_engine_baseE = linkonce_odr hidden constant { ptr, ptr } { ptr getelementptr inbounds (ptr, ptr @_ZTVN10__cxxabiv117__class_type_infoE, i64 2), ptr @_ZTSN7datalog20register_engine_baseE }, comdat, align 8
@_ZTVN10__cxxabiv117__class_type_infoE = external global [0 x ptr]
@_ZTSN7datalog20register_engine_baseE = linkonce_odr hidden constant [33 x i8] c"N7datalog20register_engine_baseE\00", comdat, align 1
@llvm.global_ctors = appending global [1 x { i32, ptr, ptr }] [{ i32, ptr, ptr } { i32 65535, ptr @_GLOBAL__sub_I_dl_register_engine.cpp, ptr null }]

@_ZN7datalog15register_engineC1Ev = hidden unnamed_addr alias void (ptr), ptr @_ZN7datalog15register_engineC2Ev

declare void @_ZNSt8ios_base4InitC1Ev(ptr noundef nonnull align 1 dereferenceable(1)) unnamed_addr #0

; Function Attrs: nounwind
declare void @_ZNSt8ios_base4InitD1Ev(ptr noundef nonnull align 1 dereferenceable(1)) unnamed_addr #1

; Function Attrs: nofree nounwind
declare i32 @__cxa_atexit(ptr, ptr, ptr) local_unnamed_addr #2

; Function Attrs: mustprogress nofree norecurse nosync nounwind willreturn memory(argmem: write) uwtable
define hidden void @_ZN7datalog15register_engineC2Ev(ptr noundef nonnull writeonly align 8 captures(none) dereferenceable(16) initializes((0, 16)) %0) unnamed_addr #3 align 2 {
  store ptr getelementptr inbounds nuw inrange(-16, 32) (i8, ptr @_ZTVN7datalog15register_engineE, i64 16), ptr %0, align 8, !tbaa !3
  %2 = getelementptr inbounds nuw i8, ptr %0, i64 8
  store ptr null, ptr %2, align 8, !tbaa !6
  ret void
}

; Function Attrs: mustprogress uwtable
define hidden noundef ptr @_ZN7datalog15register_engine9mk_engineENS_9DL_ENGINEE(ptr noundef nonnull readonly align 8 captures(none) dereferenceable(16) %0, i32 noundef %1) unnamed_addr #4 align 2 {
  switch i32 %1, label %28 [
    i32 1, label %3
    i32 0, label %7
    i32 2, label %11
    i32 3, label %11
    i32 4, label %15
    i32 5, label %19
    i32 6, label %23
    i32 7, label %27
  ]

3:                                                ; preds = %2
  %4 = tail call noalias noundef ptr @_ZN6memory8allocateEm(i64 noundef 600)
  %5 = getelementptr inbounds nuw i8, ptr %0, i64 8
  %6 = load ptr, ptr %5, align 8, !tbaa !6
  tail call void @_ZN6spacer12dl_interfaceC1ERN7datalog7contextE(ptr noundef nonnull align 8 dereferenceable(600) %4, ptr noundef nonnull align 8 dereferenceable(3028) %6)
  br label %29

7:                                                ; preds = %2
  %8 = tail call noalias noundef ptr @_ZN6memory8allocateEm(i64 noundef 432)
  %9 = getelementptr inbounds nuw i8, ptr %0, i64 8
  %10 = load ptr, ptr %9, align 8, !tbaa !6
  tail call void @_ZN7datalog11rel_contextC1ERNS_7contextE(ptr noundef nonnull align 8 dereferenceable(432) %8, ptr noundef nonnull align 8 dereferenceable(3028) %10)
  br label %29

11:                                               ; preds = %2, %2
  %12 = tail call noalias noundef ptr @_ZN6memory8allocateEm(i64 noundef 368)
  %13 = getelementptr inbounds nuw i8, ptr %0, i64 8
  %14 = load ptr, ptr %13, align 8, !tbaa !6
  tail call void @_ZN7datalog3bmcC1ERNS_7contextE(ptr noundef nonnull align 8 dereferenceable(368) %12, ptr noundef nonnull align 8 dereferenceable(3028) %14)
  br label %29

15:                                               ; preds = %2
  %16 = tail call noalias noundef ptr @_ZN6memory8allocateEm(i64 noundef 56)
  %17 = getelementptr inbounds nuw i8, ptr %0, i64 8
  %18 = load ptr, ptr %17, align 8, !tbaa !6
  tail call void @_ZN7datalog3tabC1ERNS_7contextE(ptr noundef nonnull align 8 dereferenceable(56) %16, ptr noundef nonnull align 8 dereferenceable(3028) %18)
  br label %29

19:                                               ; preds = %2
  %20 = tail call noalias noundef ptr @_ZN6memory8allocateEm(i64 noundef 56)
  %21 = getelementptr inbounds nuw i8, ptr %0, i64 8
  %22 = load ptr, ptr %21, align 8, !tbaa !6
  tail call void @_ZN7datalog3clpC1ERNS_7contextE(ptr noundef nonnull align 8 dereferenceable(56) %20, ptr noundef nonnull align 8 dereferenceable(3028) %22)
  br label %29

23:                                               ; preds = %2
  %24 = tail call noalias noundef ptr @_ZN6memory8allocateEm(i64 noundef 56)
  %25 = getelementptr inbounds nuw i8, ptr %0, i64 8
  %26 = load ptr, ptr %25, align 8, !tbaa !6
  tail call void @_ZN7datalog4ddnfC1ERNS_7contextE(ptr noundef nonnull align 8 dereferenceable(56) %24, ptr noundef nonnull align 8 dereferenceable(3028) %26)
  br label %29

27:                                               ; preds = %2
  tail call void @_Z26notify_assertion_violationPKciS0_(ptr noundef nonnull @.str, i32 noundef 46, ptr noundef nonnull @.str.1)
  tail call void @_Z18invoke_exit_actionj(i32 noundef 114)
  br label %29

28:                                               ; preds = %2
  tail call void @_Z26notify_assertion_violationPKciS0_(ptr noundef nonnull @.str, i32 noundef 49, ptr noundef nonnull @.str.1)
  tail call void @_Z18invoke_exit_actionj(i32 noundef 114)
  br label %29

29:                                               ; preds = %28, %27, %23, %19, %15, %11, %7, %3
  %.0 = phi ptr [ null, %28 ], [ null, %27 ], [ %24, %23 ], [ %20, %19 ], [ %16, %15 ], [ %12, %11 ], [ %8, %7 ], [ %4, %3 ]
  ret ptr %.0
}

declare noalias noundef ptr @_ZN6memory8allocateEm(i64 noundef) local_unnamed_addr #0

declare void @_ZN6spacer12dl_interfaceC1ERN7datalog7contextE(ptr noundef nonnull align 8 dereferenceable(600), ptr noundef nonnull align 8 dereferenceable(3028)) unnamed_addr #0

declare void @_ZN7datalog11rel_contextC1ERNS_7contextE(ptr noundef nonnull align 8 dereferenceable(432), ptr noundef nonnull align 8 dereferenceable(3028)) unnamed_addr #0

declare void @_ZN7datalog3bmcC1ERNS_7contextE(ptr noundef nonnull align 8 dereferenceable(368), ptr noundef nonnull align 8 dereferenceable(3028)) unnamed_addr #0

declare void @_ZN7datalog3tabC1ERNS_7contextE(ptr noundef nonnull align 8 dereferenceable(56), ptr noundef nonnull align 8 dereferenceable(3028)) unnamed_addr #0

declare void @_ZN7datalog3clpC1ERNS_7contextE(ptr noundef nonnull align 8 dereferenceable(56), ptr noundef nonnull align 8 dereferenceable(3028)) unnamed_addr #0

declare void @_ZN7datalog4ddnfC1ERNS_7contextE(ptr noundef nonnull align 8 dereferenceable(56), ptr noundef nonnull align 8 dereferenceable(3028)) unnamed_addr #0

declare void @_Z26notify_assertion_violationPKciS0_(ptr noundef, i32 noundef, ptr noundef) local_unnamed_addr #0

declare void @_Z18invoke_exit_actionj(i32 noundef) local_unnamed_addr #0

; Function Attrs: mustprogress nounwind uwtable
define linkonce_odr hidden void @_ZN7datalog20register_engine_baseD2Ev(ptr noundef nonnull align 8 dereferenceable(8) %0) unnamed_addr #5 comdat align 2 {
  ret void
}

; Function Attrs: inlinehint mustprogress nounwind uwtable
define linkonce_odr hidden void @_ZN7datalog15register_engineD0Ev(ptr noundef nonnull align 8 dereferenceable(16) %0) unnamed_addr #6 comdat align 2 {
  tail call void @_ZdlPvm(ptr noundef nonnull %0, i64 noundef 16) #9
  ret void
}

; Function Attrs: mustprogress nounwind uwtable
define linkonce_odr hidden void @_ZN7datalog15register_engine11set_contextEPNS_7contextE(ptr noundef nonnull align 8 dereferenceable(16) %0, ptr noundef %1) unnamed_addr #5 comdat align 2 {
  %3 = getelementptr inbounds nuw i8, ptr %0, i64 8
  store ptr %1, ptr %3, align 8, !tbaa !6
  ret void
}

; Function Attrs: nobuiltin nounwind
declare void @_ZdlPvm(ptr noundef, i64 noundef) local_unnamed_addr #7

; Function Attrs: uwtable
define internal void @_GLOBAL__sub_I_dl_register_engine.cpp() #8 section ".text.startup" {
  tail call void @_ZNSt8ios_base4InitC1Ev(ptr noundef nonnull align 1 dereferenceable(1) @_ZStL8__ioinit)
  %1 = tail call i32 @__cxa_atexit(ptr nonnull @_ZNSt8ios_base4InitD1Ev, ptr nonnull @_ZStL8__ioinit, ptr nonnull @__dso_handle) #10
  ret void
}


!llvm.linker.options = !{}
!llvm.module.flags = !{!0, !1, !2}

!0 = !{i32 1, !"wchar_size", i32 4}
!1 = !{i32 8, !"PIC Level", i32 2}
!2 = !{i32 7, !"uwtable", i32 2}
!3 = !{!4, !4, i64 0}
!4 = !{!"vtable pointer", !5, i64 0}
!5 = !{!"Simple C++ TBAA"}
!6 = !{!7, !9, i64 8}
!7 = !{!"_ZTSN7datalog15register_engineE", !8, i64 0, !9, i64 8}
!8 = !{!"_ZTSN7datalog20register_engine_baseE"}
!9 = !{!"p1 _ZTSN7datalog7contextE", !10, i64 0}
!10 = !{!"any pointer", !11, i64 0}
!11 = !{!"omnipotent char", !5, i64 0}
